target datalayout = "e-m:e-p270:32:32-p271:32:32-p272:64:64-i64:64-i128:128-f80:128-n8:16:32:64-S128"
target triple = "x86_64-pc-linux-gnu"

%class.Register = type { i32 }
%class.BarrierSet = type { ptr, %class.FakeRttiSupport, ptr, ptr, ptr, ptr, ptr }
%class.FakeRttiSupport = type <{ i64, i32, [4 x i8] }>

@_ZN10BarrierSet12_barrier_setE = external global ptr, align 8

; Function Attrs: mustprogress nounwind uwtable
define linkonce_odr hidden noundef ptr @_ZN10BarrierSet21barrier_set_assemblerEv(ptr noundef nonnull align 8 dereferenceable(64) %0) #1 comdat align 2 {
  %2 = alloca ptr, align 8
  store ptr %0, ptr %2, align 8
  %3 = load ptr, ptr %2, align 8
  %4 = getelementptr inbounds %class.BarrierSet, ptr %3, i32 0, i32 2
  %5 = load ptr, ptr %4, align 8
  ret ptr %5
}

; Function Attrs: mustprogress nounwind uwtable
define linkonce_odr hidden noundef ptr @_ZN10BarrierSet11barrier_setEv() #1 comdat align 2 {
  %1 = load ptr, ptr @_ZN10BarrierSet12_barrier_setE, align 8
  ret ptr %1
}

; Function Attrs: mustprogress nounwind uwtable
define hidden void @_ZN14MacroAssembler13tlab_allocateE8RegisterS0_S0_iS0_S0_R5Label(ptr noundef nonnull align 8 dereferenceable(40) %0, i32 %1, i32 %2, i32 %3, i32 noundef %4, i32 %5, i32 %6, ptr noundef nonnull align 8 dereferenceable(33) %7) #1 align 2 {
  %9 = alloca %class.Register, align 4
  %10 = alloca %class.Register, align 4
  %11 = alloca %class.Register, align 4
  %12 = alloca %class.Register, align 4
  %13 = alloca %class.Register, align 4
  %14 = alloca ptr, align 8
  %15 = alloca i32, align 4
  %16 = alloca ptr, align 8
  %17 = alloca ptr, align 8
  %18 = alloca %class.Register, align 4
  %19 = alloca %class.Register, align 4
  %20 = alloca %class.Register, align 4
  %21 = alloca %class.Register, align 4
  %22 = alloca %class.Register, align 4
  %23 = getelementptr inbounds %class.Register, ptr %9, i32 0, i32 0
  store i32 %1, ptr %23, align 4
  %24 = getelementptr inbounds %class.Register, ptr %10, i32 0, i32 0
  store i32 %2, ptr %24, align 4
  %25 = getelementptr inbounds %class.Register, ptr %11, i32 0, i32 0
  store i32 %3, ptr %25, align 4
  %26 = getelementptr inbounds %class.Register, ptr %12, i32 0, i32 0
  store i32 %5, ptr %26, align 4
  %27 = getelementptr inbounds %class.Register, ptr %13, i32 0, i32 0
  store i32 %6, ptr %27, align 4
  store ptr %0, ptr %14, align 8
  store i32 %4, ptr %15, align 4
  store ptr %7, ptr %16, align 8
  %28 = load ptr, ptr %14, align 8
  %29 = call noundef ptr @_ZN10BarrierSet11barrier_setEv()
  %30 = call noundef ptr @_ZN10BarrierSet21barrier_set_assemblerEv(ptr noundef nonnull align 8 dereferenceable(64) %29)
  store ptr %30, ptr %17, align 8
  %31 = load ptr, ptr %17, align 8
  call void @llvm.memcpy.p0.p0.i64(ptr align 4 %18, ptr align 4 %9, i64 4, i1 false)
  call void @llvm.memcpy.p0.p0.i64(ptr align 4 %19, ptr align 4 %10, i64 4, i1 false)
  call void @llvm.memcpy.p0.p0.i64(ptr align 4 %20, ptr align 4 %11, i64 4, i1 false)
  %32 = load i32, ptr %15, align 4
  call void @llvm.memcpy.p0.p0.i64(ptr align 4 %21, ptr align 4 %12, i64 4, i1 false)
  call void @llvm.memcpy.p0.p0.i64(ptr align 4 %22, ptr align 4 %13, i64 4, i1 false)
  %33 = load ptr, ptr %16, align 8
  %34 = getelementptr inbounds %class.Register, ptr %18, i32 0, i32 0
  %35 = load i32, ptr %34, align 4
  %36 = getelementptr inbounds %class.Register, ptr %19, i32 0, i32 0
  %37 = load i32, ptr %36, align 4
  %38 = getelementptr inbounds %class.Register, ptr %20, i32 0, i32 0
  %39 = load i32, ptr %38, align 4
  %40 = getelementptr inbounds %class.Register, ptr %21, i32 0, i32 0
  %41 = load i32, ptr %40, align 4
  %42 = getelementptr inbounds %class.Register, ptr %22, i32 0, i32 0
  %43 = load i32, ptr %42, align 4
  %44 = load ptr, ptr %31, align 8
  %45 = getelementptr inbounds ptr, ptr %44, i64 10
  %46 = load ptr, ptr %45, align 8
  call void %46(ptr noundef nonnull align 8 dereferenceable(8) %31, ptr noundef %28, i32 %35, i32 %37, i32 %39, i32 noundef %32, i32 %41, i32 %43, ptr noundef nonnull align 8 dereferenceable(33) %33)
  ret void
}