; Function Attrs: mustprogress nounwind uwtable
define hidden void @_ZN14MacroAssembler13tlab_allocateE8RegisterS0_S0_iS0_S0_R5Label(ptr noundef nonnull align 8 dereferenceable(40) %0, i32 %1, i32 %2, i32 %3, i32 noundef %4, i32 %5, i32 %6, ptr noundef nonnull align 8 dereferenceable(33) %7) local_unnamed_addr #0 align 2 {
  %9 = load ptr, ptr @_ZN10BarrierSet12_barrier_setE, align 8
  %10 = getelementptr inbounds i8, ptr %9, i64 24
  %11 = load ptr, ptr %10, align 8
  %12 = load ptr, ptr %11, align 8
  %13 = getelementptr inbounds i8, ptr %12, i64 80
  %14 = load ptr, ptr %13, align 8
  tail call void %14(ptr noundef nonnull align 8 dereferenceable(8) %11, ptr noundef nonnull %0, i32 %1, i32 %2, i32 %3, i32 noundef %4, i32 %5, i32 %6, ptr noundef nonnull align 8 dereferenceable(33) %7) #18
  ret void
}